target datalayout = "e-m:e-p270:32:32-p271:32:32-p272:64:64-i64:64-i128:128-f80:128-n8:16:32:64-S128"
target triple = "x86_64-pc-linux-gnu"

%struct.prte_oob_base_t = type { i32, i32, i32, i32, i32, %struct.pmix_list_t, i32, %struct.pmix_list_t, i32, i32, i8, ptr, ptr, ptr, ptr, i8, ptr, ptr, ptr, ptr, %struct.pmix_list_t, ptr, i32, %struct.pmix_list_t, %struct.pmix_thread_t, i8, %struct.timeval, [2 x i32], i32, i32, i32, i32, i32 }
%struct.pmix_list_t = type { %struct.pmix_object_t, %struct.pmix_list_item_t, i64 }
%struct.pmix_object_t = type { %union.pthread_mutex_t, ptr, i32, %struct.pmix_tma }
%union.pthread_mutex_t = type { %struct.__pthread_mutex_s }
%struct.__pthread_mutex_s = type { i32, i32, i32, i32, i32, i16, i16, %struct.__pthread_internal_list }
%struct.__pthread_internal_list = type { ptr, ptr }
%struct.pmix_tma = type { ptr, ptr, ptr, ptr, ptr, ptr, ptr, ptr }
%struct.pmix_list_item_t = type { %struct.pmix_object_t, ptr, ptr, i32 }
%struct.pmix_thread_t = type { %struct.pmix_object_t, ptr, ptr, i64 }
%struct.timeval = type { i64, i64 }
%struct.pmix_output_desc_t = type { i8, i8, i32, i8, i32, ptr, ptr, i32, ptr, i32, i8, i8, i8, i8, ptr, i32, i32 }
%struct.prte_process_info_t = type { %struct.pmix_proc, %struct.pmix_proc, ptr, %struct.pmix_proc, i32, i32, i32, ptr, ptr, i32, i8, ptr, i16, ptr, ptr, i8, ptr, i8 }
%struct.pmix_proc = type { [256 x i8], i32 }
%struct.pmix_mca_base_framework_t = type { ptr, ptr, ptr, ptr, ptr, ptr, i32, i32, ptr, ptr, i32, i32, %struct.pmix_list_t, %struct.pmix_list_t }
%struct.prte_state_base_module_1_0_0_t = type { ptr, ptr, ptr, ptr, ptr, ptr, ptr, ptr, ptr, ptr }
%struct.pmix_class_t = type { ptr, ptr, ptr, ptr, i32, i32, ptr, ptr, i64 }
%struct.event = type { %struct.event_callback, %union.anon.0, i32, ptr, %union.anon.2, i16, i16, %struct.timeval }
%struct.event_callback = type { %struct.anon, i16, i8, i8, %union.anon, ptr }
%struct.anon = type { ptr, ptr }
%union.anon = type { ptr }
%union.anon.0 = type { %struct.anon.1 }
%struct.anon.1 = type { ptr, ptr }
%union.anon.2 = type { %struct.anon.3 }
%struct.anon.3 = type { %struct.anon.4, %struct.timeval }
%struct.anon.4 = type { ptr, ptr }
%struct.prte_oob_tcp_msg_error_t = type { %struct.pmix_object_t, %struct.event, ptr, ptr, %struct.pmix_proc }

@prte_oob_base = external global %struct.prte_oob_base_t, align 8
@pmix_output_info = external global [0 x %struct.pmix_output_desc_t], align 8
@prte_process_info = external global %struct.prte_process_info_t, align 8
@prte_finalizing = external global i8, align 1
@prte_state_base_framework = external global %struct.pmix_mca_base_framework_t, align 8
@.str.1 = private unnamed_addr constant [43 x i8] c"%s [%f] ACTIVATE PROC %s STATE %s AT %s:%d\00", align 1
@.str.2 = private unnamed_addr constant [5 x i8] c"NULL\00", align 1
@.str.3 = private unnamed_addr constant [28 x i8] c"rml/oob/oob_tcp_component.c\00", align 1
@prte_state = external global %struct.prte_state_base_module_1_0_0_t, align 8
@.str.4 = private unnamed_addr constant [35 x i8] c"%s tcp:no route called for peer %s\00", align 1
@prte_prteds_term_ordered = external global i8, align 1
@prte_abnormal_term_ordered = external global i8, align 1
@.str.14 = private unnamed_addr constant [21 x i8] c"pthread_mutex_lock()\00", align 1

; Function Attrs: inlinehint nounwind uwtable
define internal void @pmix_tma_free(ptr noundef %0, ptr noundef %1) #2 {
  %3 = alloca ptr, align 8
  %4 = alloca ptr, align 8
  store ptr %0, ptr %3, align 8, !tbaa !60
  store ptr %1, ptr %4, align 8, !tbaa !9
  %5 = load ptr, ptr %3, align 8, !tbaa !60
  %6 = icmp ne ptr null, %5
  br i1 %6, label %7, label %13

7:                                                ; preds = %2
  %8 = load ptr, ptr %3, align 8, !tbaa !60
  %9 = getelementptr inbounds nuw %struct.pmix_tma, ptr %8, i32 0, i32 5
  %10 = load ptr, ptr %9, align 8, !tbaa !62
  %11 = load ptr, ptr %3, align 8, !tbaa !60
  %12 = load ptr, ptr %4, align 8, !tbaa !9
  call void %10(ptr noundef %11, ptr noundef %12)
  br label %15

13:                                               ; preds = %2
  %14 = load ptr, ptr %4, align 8, !tbaa !9
  call void @free(ptr noundef %14) #10
  br label %15

15:                                               ; preds = %13, %7
  ret void
}

; Function Attrs: inlinehint nounwind uwtable
define internal void @pmix_obj_run_destructors(ptr noundef %0) #2 {
  %2 = alloca ptr, align 8
  %3 = alloca ptr, align 8
  store ptr %0, ptr %2, align 8, !tbaa !51
  call void @llvm.lifetime.start.p0(i64 8, ptr %3) #10
  %4 = load ptr, ptr %2, align 8, !tbaa !51
  %5 = getelementptr inbounds nuw %struct.pmix_object_t, ptr %4, i32 0, i32 1
  %6 = load ptr, ptr %5, align 8, !tbaa !55
  %7 = getelementptr inbounds nuw %struct.pmix_class_t, ptr %6, i32 0, i32 7
  %8 = load ptr, ptr %7, align 8, !tbaa !56
  store ptr %8, ptr %3, align 8, !tbaa !9
  br label %9

9:                                                ; preds = %13, %1
  %10 = load ptr, ptr %3, align 8, !tbaa !9
  %11 = load ptr, ptr %10, align 8, !tbaa !9
  %12 = icmp ne ptr null, %11
  br i1 %12, label %13, label %19

13:                                               ; preds = %9
  %14 = load ptr, ptr %3, align 8, !tbaa !9
  %15 = load ptr, ptr %14, align 8, !tbaa !9
  %16 = load ptr, ptr %2, align 8, !tbaa !51
  call void %15(ptr noundef %16)
  %17 = load ptr, ptr %3, align 8, !tbaa !9
  %18 = getelementptr inbounds nuw ptr, ptr %17, i32 1
  store ptr %18, ptr %3, align 8, !tbaa !9
  br label %9, !llvm.loop !58

19:                                               ; preds = %9
  call void @llvm.lifetime.end.p0(i64 8, ptr %3) #10
  ret void
}

; Function Attrs: alwaysinline nounwind uwtable
define internal i32 @pmix_obj_update(ptr noundef %0, i32 noundef %1) #5 {
  %3 = alloca ptr, align 8
  %4 = alloca i32, align 4
  %5 = alloca i32, align 4
  store ptr %0, ptr %3, align 8, !tbaa !51
  store i32 %1, ptr %4, align 4, !tbaa !3
  call void @llvm.lifetime.start.p0(i64 4, ptr %5) #10
  %6 = load ptr, ptr %3, align 8, !tbaa !51
  %7 = getelementptr inbounds nuw %struct.pmix_object_t, ptr %6, i32 0, i32 0
  %8 = call i32 @pthread_mutex_lock(ptr noundef %7) #10
  store i32 %8, ptr %5, align 4, !tbaa !3
  %9 = load i32, ptr %5, align 4, !tbaa !3
  %10 = icmp eq i32 %9, 35
  br i1 %10, label %11, label %14

11:                                               ; preds = %2
  %12 = load i32, ptr %5, align 4, !tbaa !3
  %13 = call ptr @__errno_location() #11
  store i32 %12, ptr %13, align 4, !tbaa !3
  call void @perror(ptr noundef @.str.14)
  call void @abort() #12
  unreachable

14:                                               ; preds = %2
  %15 = load i32, ptr %4, align 4, !tbaa !3
  %16 = load ptr, ptr %3, align 8, !tbaa !51
  %17 = getelementptr inbounds nuw %struct.pmix_object_t, ptr %16, i32 0, i32 2
  %18 = load i32, ptr %17, align 8, !tbaa !54
  %19 = add nsw i32 %18, %15
  store i32 %19, ptr %17, align 8, !tbaa !54
  store i32 %19, ptr %5, align 4, !tbaa !3
  %20 = load ptr, ptr %3, align 8, !tbaa !51
  %21 = getelementptr inbounds nuw %struct.pmix_object_t, ptr %20, i32 0, i32 0
  %22 = call i32 @pthread_mutex_unlock(ptr noundef %21) #10
  %23 = load i32, ptr %5, align 4, !tbaa !3
  call void @llvm.lifetime.end.p0(i64 4, ptr %5) #10
  ret i32 %23
}

; Function Attrs: inlinehint nounwind uwtable
define internal void @pmix_atomic_rmb() #2 {
  fence acquire
  ret void
}

; Function Attrs: nounwind uwtable
define void @prte_mca_oob_tcp_component_no_route(i32 noundef %0, i16 noundef signext %1, ptr noundef %2) #0 {
  %4 = alloca i32, align 4
  %5 = alloca i16, align 2
  %6 = alloca ptr, align 8
  %7 = alloca ptr, align 8
  %8 = alloca ptr, align 8
  %9 = alloca i32, align 4
  %10 = alloca ptr, align 8
  %11 = alloca double, align 8
  %12 = alloca %struct.timeval, align 8
  %13 = alloca ptr, align 8
  store i32 %0, ptr %4, align 4, !tbaa !3
  store i16 %1, ptr %5, align 2, !tbaa !7
  store ptr %2, ptr %6, align 8, !tbaa !9
  call void @llvm.lifetime.start.p0(i64 8, ptr %7) #10
  %14 = load ptr, ptr %6, align 8, !tbaa !9
  store ptr %14, ptr %7, align 8, !tbaa !9
  call void @pmix_atomic_rmb()
  %15 = load i32, ptr @prte_oob_base, align 8, !tbaa !11
  %16 = icmp sge i32 %15, 0
  br i1 %16, label %17, label %33

17:                                               ; preds = %3
  %18 = load i32, ptr @prte_oob_base, align 8, !tbaa !11
  %19 = icmp slt i32 %18, 64
  br i1 %19, label %20, label %33

20:                                               ; preds = %17
  %21 = load i32, ptr @prte_oob_base, align 8, !tbaa !11
  %22 = sext i32 %21 to i64
  %23 = getelementptr inbounds [0 x %struct.pmix_output_desc_t], ptr @pmix_output_info, i64 0, i64 %22
  %24 = getelementptr inbounds nuw %struct.pmix_output_desc_t, ptr %23, i32 0, i32 2
  %25 = load i32, ptr %24, align 4, !tbaa !24
  %26 = icmp sge i32 %25, 7
  br i1 %26, label %27, label %33

27:                                               ; preds = %20
  %28 = load i32, ptr @prte_oob_base, align 8, !tbaa !11
  %29 = call ptr @prte_util_print_name_args(ptr noundef @prte_process_info)
  %30 = load ptr, ptr %7, align 8, !tbaa !9
  %31 = getelementptr inbounds nuw %struct.prte_oob_tcp_msg_error_t, ptr %30, i32 0, i32 4
  %32 = call ptr @prte_util_print_name_args(ptr noundef %31)
  call void (i32, ptr, ...) @pmix_output(i32 noundef %28, ptr noundef @.str.4, ptr noundef %29, ptr noundef %32)
  br label %33

33:                                               ; preds = %27, %20, %17, %3
  %34 = load i8, ptr @prte_prteds_term_ordered, align 1, !tbaa !27, !range !28, !noundef !29
  %35 = trunc i8 %34 to i1
  br i1 %35, label %42, label %36

36:                                               ; preds = %33
  %37 = load i8, ptr @prte_finalizing, align 1, !tbaa !27, !range !28, !noundef !29
  %38 = trunc i8 %37 to i1
  br i1 %38, label %42, label %39

39:                                               ; preds = %36
  %40 = load i8, ptr @prte_abnormal_term_ordered, align 1, !tbaa !27, !range !28, !noundef !29
  %41 = trunc i8 %40 to i1
  br i1 %41, label %42, label %65

42:                                               ; preds = %39, %36, %33
  br label %43

43:                                               ; preds = %42
  call void @llvm.lifetime.start.p0(i64 8, ptr %8) #10
  %44 = load ptr, ptr %7, align 8, !tbaa !9
  store ptr %44, ptr %8, align 8, !tbaa !51
  %45 = load ptr, ptr %8, align 8, !tbaa !51
  %46 = call i32 @pmix_obj_update(ptr noundef %45, i32 noundef -1)
  %47 = icmp eq i32 0, %46
  br i1 %47, label %48, label %62

48:                                               ; preds = %43
  %49 = load ptr, ptr %8, align 8, !tbaa !51
  call void @pmix_obj_run_destructors(ptr noundef %49)
  %50 = load ptr, ptr %8, align 8, !tbaa !51
  %51 = getelementptr inbounds nuw %struct.pmix_object_t, ptr %50, i32 0, i32 3
  %52 = getelementptr inbounds nuw %struct.pmix_tma, ptr %51, i32 0, i32 5
  %53 = load ptr, ptr %52, align 8, !tbaa !53
  %54 = icmp ne ptr null, %53
  br i1 %54, label %55, label %59

55:                                               ; preds = %48
  %56 = load ptr, ptr %8, align 8, !tbaa !51
  %57 = getelementptr inbounds nuw %struct.pmix_object_t, ptr %56, i32 0, i32 3
  %58 = load ptr, ptr %7, align 8, !tbaa !9
  call void @pmix_tma_free(ptr noundef %57, ptr noundef %58)
  br label %61

59:                                               ; preds = %48
  %60 = load ptr, ptr %7, align 8, !tbaa !9
  call void @free(ptr noundef %60) #10
  br label %61

61:                                               ; preds = %59, %55
  store ptr null, ptr %7, align 8, !tbaa !9
  br label %62

62:                                               ; preds = %61, %43
  call void @llvm.lifetime.end.p0(i64 8, ptr %8) #10
  br label %63

63:                                               ; preds = %62
  br label %64

64:                                               ; preds = %63
  store i32 1, ptr %9, align 4
  br label %138

65:                                               ; preds = %39
  br label %66

66:                                               ; preds = %65
  call void @llvm.lifetime.start.p0(i64 8, ptr %10) #10
  %67 = load ptr, ptr %7, align 8, !tbaa !9
  %68 = getelementptr inbounds nuw %struct.prte_oob_tcp_msg_error_t, ptr %67, i32 0, i32 4
  store ptr %68, ptr %10, align 8, !tbaa !39
  %69 = load i32, ptr getelementptr inbounds nuw (%struct.pmix_mca_base_framework_t, ptr @prte_state_base_framework, i32 0, i32 10), align 8, !tbaa !41
  %70 = icmp sgt i32 %69, 0
  br i1 %70, label %71, label %111

71:                                               ; preds = %66
  call void @llvm.lifetime.start.p0(i64 8, ptr %11) #10
  store double 0.000000e+00, ptr %11, align 8, !tbaa !44
  br label %72

72:                                               ; preds = %71
  call void @llvm.lifetime.start.p0(i64 16, ptr %12) #10
  %73 = call i32 @gettimeofday(ptr noundef %12, ptr noundef null) #10
  %74 = getelementptr inbounds nuw %struct.timeval, ptr %12, i32 0, i32 0
  %75 = load i64, ptr %74, align 8, !tbaa !46
  %76 = sitofp i64 %75 to double
  store double %76, ptr %11, align 8, !tbaa !44
  %77 = getelementptr inbounds nuw %struct.timeval, ptr %12, i32 0, i32 1
  %78 = load i64, ptr %77, align 8, !tbaa !47
  %79 = sitofp i64 %78 to double
  %80 = fdiv double %79, 1.000000e+06
  %81 = load double, ptr %11, align 8, !tbaa !44
  %82 = fadd double %81, %80
  store double %82, ptr %11, align 8, !tbaa !44
  call void @llvm.lifetime.end.p0(i64 16, ptr %12) #10
  br label %83

83:                                               ; preds = %72
  br label %84

84:                                               ; preds = %83
  %85 = load i32, ptr getelementptr inbounds nuw (%struct.pmix_mca_base_framework_t, ptr @prte_state_base_framework, i32 0, i32 11), align 4, !tbaa !48
  %86 = icmp sge i32 %85, 0
  br i1 %86, label %87, label %110

87:                                               ; preds = %84
  %88 = load i32, ptr getelementptr inbounds nuw (%struct.pmix_mca_base_framework_t, ptr @prte_state_base_framework, i32 0, i32 11), align 4, !tbaa !48
  %89 = icmp slt i32 %88, 64
  br i1 %89, label %90, label %110

90:                                               ; preds = %87
  %91 = load i32, ptr getelementptr inbounds nuw (%struct.pmix_mca_base_framework_t, ptr @prte_state_base_framework, i32 0, i32 11), align 4, !tbaa !48
  %92 = sext i32 %91 to i64
  %93 = getelementptr inbounds [0 x %struct.pmix_output_desc_t], ptr @pmix_output_info, i64 0, i64 %92
  %94 = getelementptr inbounds nuw %struct.pmix_output_desc_t, ptr %93, i32 0, i32 2
  %95 = load i32, ptr %94, align 4, !tbaa !24
  %96 = icmp sge i32 %95, 1
  br i1 %96, label %97, label %110

97:                                               ; preds = %90
  %98 = load i32, ptr getelementptr inbounds nuw (%struct.pmix_mca_base_framework_t, ptr @prte_state_base_framework, i32 0, i32 11), align 4, !tbaa !48
  %99 = call ptr @prte_util_print_name_args(ptr noundef @prte_process_info)
  %100 = load double, ptr %11, align 8, !tbaa !44
  %101 = load ptr, ptr %10, align 8, !tbaa !39
  %102 = icmp eq ptr null, %101
  br i1 %102, label %103, label %104

103:                                              ; preds = %97
  br label %107

104:                                              ; preds = %97
  %105 = load ptr, ptr %10, align 8, !tbaa !39
  %106 = call ptr @prte_util_print_name_args(ptr noundef %105)
  br label %107

107:                                              ; preds = %104, %103
  %108 = phi ptr [ @.str.2, %103 ], [ %106, %104 ]
  %109 = call ptr @prte_proc_state_to_str(i32 noundef 64)
  call void (i32, ptr, ...) @pmix_output(i32 noundef %98, ptr noundef @.str.1, ptr noundef %99, double noundef %100, ptr noundef %108, ptr noundef %109, ptr noundef @.str.3, i32 noundef 136)
  br label %110

110:                                              ; preds = %107, %90, %87, %84
  call void @llvm.lifetime.end.p0(i64 8, ptr %11) #10
  br label %111

111:                                              ; preds = %110, %66
  %112 = load ptr, ptr getelementptr inbounds nuw (%struct.prte_state_base_module_1_0_0_t, ptr @prte_state, i32 0, i32 6), align 8, !tbaa !49
  %113 = load ptr, ptr %10, align 8, !tbaa !39
  call void %112(ptr noundef %113, i32 noundef 64)
  call void @llvm.lifetime.end.p0(i64 8, ptr %10) #10
  br label %114

114:                                              ; preds = %111
  br label %115

115:                                              ; preds = %114
  br label %116

116:                                              ; preds = %115
  call void @llvm.lifetime.start.p0(i64 8, ptr %13) #10
  %117 = load ptr, ptr %7, align 8, !tbaa !9
  store ptr %117, ptr %13, align 8, !tbaa !51
  %118 = load ptr, ptr %13, align 8, !tbaa !51
  %119 = call i32 @pmix_obj_update(ptr noundef %118, i32 noundef -1)
  %120 = icmp eq i32 0, %119
  br i1 %120, label %121, label %135

121:                                              ; preds = %116
  %122 = load ptr, ptr %13, align 8, !tbaa !51
  call void @pmix_obj_run_destructors(ptr noundef %122)
  %123 = load ptr, ptr %13, align 8, !tbaa !51
  %124 = getelementptr inbounds nuw %struct.pmix_object_t, ptr %123, i32 0, i32 3
  %125 = getelementptr inbounds nuw %struct.pmix_tma, ptr %124, i32 0, i32 5
  %126 = load ptr, ptr %125, align 8, !tbaa !53
  %127 = icmp ne ptr null, %126
  br i1 %127, label %128, label %132

128:                                              ; preds = %121
  %129 = load ptr, ptr %13, align 8, !tbaa !51
  %130 = getelementptr inbounds nuw %struct.pmix_object_t, ptr %129, i32 0, i32 3
  %131 = load ptr, ptr %7, align 8, !tbaa !9
  call void @pmix_tma_free(ptr noundef %130, ptr noundef %131)
  br label %134

132:                                              ; preds = %121
  %133 = load ptr, ptr %7, align 8, !tbaa !9
  call void @free(ptr noundef %133) #10
  br label %134

134:                                              ; preds = %132, %128
  store ptr null, ptr %7, align 8, !tbaa !9
  br label %135

135:                                              ; preds = %134, %116
  call void @llvm.lifetime.end.p0(i64 8, ptr %13) #10
  br label %136

136:                                              ; preds = %135
  br label %137

137:                                              ; preds = %136
  store i32 0, ptr %9, align 4
  br label %138

138:                                              ; preds = %137, %64
  call void @llvm.lifetime.end.p0(i64 8, ptr %7) #10
  %139 = load i32, ptr %9, align 4
  switch i32 %139, label %141 [
    i32 0, label %140
    i32 1, label %140
  ]

140:                                              ; preds = %138, %138
  ret void

141:                                              ; preds = %138
  unreachable
}